; Function Attrs: mustprogress uwtable
define hidden noundef zeroext i1 @_ZNK3sat17integrity_checker13check_watchesENS_7literalE(ptr nocapture noundef nonnull readonly align 8 dereferenceable(8) %this, i32 %l.coerce) local_unnamed_addr #4 align 2 {
entry:
  %0 = load ptr, ptr %this, align 8
  %xor.i = xor i32 %l.coerce, 1
  %m_watches.i = getelementptr inbounds i8, ptr %0, i64 3432
  %1 = load ptr, ptr %m_watches.i, align 8
  %idxprom.i.i = zext i32 %xor.i to i64
  %arrayidx.i.i = getelementptr inbounds %class.vector.51, ptr %1, i64 %idxprom.i.i
  %call9 = tail call noundef zeroext i1 @_ZNK3sat17integrity_checker13check_watchesENS_7literalERK6vectorINS_7watchedELb1EjE(ptr noundef nonnull align 8 dereferenceable(8) %this, i32 %l.coerce, ptr noundef nonnull align 8 dereferenceable(8) %arrayidx.i.i)
  ret i1 true
}